target datalayout = "e-m:e-p270:32:32-p271:32:32-p272:64:64-i64:64-i128:128-f80:128-n8:16:32:64-S128"
target triple = "x86_64-unknown-linux-gnu"

%struct.USBPortOps = type { ptr, ptr, ptr, ptr, ptr }
%struct.EHCIState = type { %struct.USBBus, ptr, ptr, %struct.MemoryRegion, ptr, %struct.MemoryRegion, %struct.MemoryRegion, %struct.MemoryRegion, i32, i8, i16, i16, i16, i16, i32, [16 x i8], %union.anon.5, [6 x i32], ptr, ptr, i8, i32, i32, [6 x %struct.USBPort], [6 x ptr], i32, i32, %union.EHCIQueueHead, %union.EHCIQueueHead, i32, i32, %struct.USBPacket, %struct.QEMUSGList, i64, i32, i32, i8, ptr }
%struct.USBBus = type { %struct.BusState, ptr, i32, i32, i32, %union.anon, %union.anon.0, %union.anon.1 }
%struct.BusState = type { %struct.Object, ptr, ptr, ptr, i32, i8, i8, i32, %union.BusChildHead, %struct.BusStateEntry, %struct.ResettableState }
%struct.Object = type { ptr, ptr, ptr, i32, ptr }
%union.BusChildHead = type { %struct.QTailQLink }
%struct.QTailQLink = type { ptr, ptr }
%struct.BusStateEntry = type { ptr, ptr }
%struct.ResettableState = type { i32, i8, i8 }
%union.anon = type { %struct.QTailQLink }
%union.anon.0 = type { %struct.QTailQLink }
%union.anon.1 = type { %struct.QTailQLink }
%struct.MemoryRegion = type { %struct.Object, i8, i8, i8, i8, i8, i8, i8, i8, i8, i8, ptr, ptr, ptr, ptr, ptr, ptr, i32, i128, i64, ptr, i64, i8, i8, i8, i8, i8, ptr, i64, i32, %union.anon.2, %union.anon.3, %union.anon.4, ptr, i32, ptr, ptr, i8 }
%union.anon.2 = type { %struct.QTailQLink }
%union.anon.3 = type { %struct.QTailQLink }
%union.anon.4 = type { %struct.QTailQLink }
%union.anon.5 = type { [17 x i32] }
%struct.USBPort = type { ptr, i32, i32, [16 x i8], ptr, ptr, i32, %union.anon.6 }
%union.anon.6 = type { %struct.QTailQLink }
%union.EHCIQueueHead = type { %struct.QTailQLink }
%struct.USBPacket = type { i32, i64, ptr, i32, %struct.QEMUIOVector, i64, i8, i8, i32, i32, i32, ptr, %union.anon.10, %union.anon.11 }
%struct.QEMUIOVector = type { ptr, i32, %union.anon.7 }
%union.anon.7 = type { %struct.anon.8 }
%struct.anon.8 = type { i32, %struct.iovec }
%struct.iovec = type { ptr, i64 }
%union.anon.10 = type { %struct.QTailQLink }
%union.anon.11 = type { %struct.QTailQLink }
%struct.QEMUSGList = type { ptr, i32, i32, i64, ptr, ptr }
%struct.anon = type { i32, i32, i32, i32, i32, i32, i32, [9 x i32], i32 }
%struct.timeval = type { i64, i64 }

@trace_events_enabled_count = external global i32, align 4
@message_with_timestamp = external global i8, align 1
@qemu_loglevel = external global i32, align 4
@_TRACE_USB_EHCI_PORT_WAKEUP_DSTATE = external global i16, align 2
@.str.97 = private unnamed_addr constant [44 x i8] c"%d@%zu.%06zu:usb_ehci_port_wakeup port #%d\0A\00", align 1
@.str.98 = private unnamed_addr constant [31 x i8] c"usb_ehci_port_wakeup port #%d\0A\00", align 1

; Function Attrs: nounwind sspstrong uwtable
define internal zeroext i1 @qemu_loglevel_mask(i32 noundef %mask) #0 {
entry:
  %mask.addr = alloca i32, align 4
  store i32 %mask, ptr %mask.addr, align 4
  %0 = load i32, ptr @qemu_loglevel, align 4
  %1 = load i32, ptr %mask.addr, align 4
  %and = and i32 %0, %1
  %cmp = icmp ne i32 %and, 0
  ret i1 %cmp
}

; Function Attrs: nounwind sspstrong uwtable
define internal void @_nocheck__trace_usb_ehci_port_wakeup(i32 noundef %port) #0 {
entry:
  %port.addr = alloca i32, align 4
  %_now = alloca %struct.timeval, align 8
  store i32 %port, ptr %port.addr, align 4
  %0 = load i32, ptr @trace_events_enabled_count, align 4
  %tobool = icmp ne i32 %0, 0
  %lnot = xor i1 %tobool, true
  %lnot1 = xor i1 %lnot, true
  %lnot.ext = zext i1 %lnot1 to i32
  %conv = sext i32 %lnot.ext to i64
  %tobool2 = icmp ne i64 %conv, 0
  br i1 %tobool2, label %land.lhs.true, label %if.end11

land.lhs.true:                                    ; preds = %entry
  %1 = load i16, ptr @_TRACE_USB_EHCI_PORT_WAKEUP_DSTATE, align 2
  %conv3 = zext i16 %1 to i32
  %tobool4 = icmp ne i32 %conv3, 0
  br i1 %tobool4, label %land.lhs.true5, label %if.end11

land.lhs.true5:                                   ; preds = %land.lhs.true
  %call = call zeroext i1 @qemu_loglevel_mask(i32 noundef 32768)
  br i1 %call, label %if.then, label %if.end11

if.then:                                          ; preds = %land.lhs.true5
  %2 = load i8, ptr @message_with_timestamp, align 1
  %tobool7 = trunc i8 %2 to i1
  br i1 %tobool7, label %if.then8, label %if.else

if.then8:                                         ; preds = %if.then
  %call9 = call i32 @gettimeofday(ptr noundef %_now, ptr noundef null) #10
  %call10 = call i32 @qemu_get_thread_id()
  %tv_sec = getelementptr inbounds %struct.timeval, ptr %_now, i32 0, i32 0
  %3 = load i64, ptr %tv_sec, align 8
  %tv_usec = getelementptr inbounds %struct.timeval, ptr %_now, i32 0, i32 1
  %4 = load i64, ptr %tv_usec, align 8
  %5 = load i32, ptr %port.addr, align 4
  call void (ptr, ...) @qemu_log(ptr noundef @.str.97, i32 noundef %call10, i64 noundef %3, i64 noundef %4, i32 noundef %5)
  br label %if.end

if.else:                                          ; preds = %if.then
  %6 = load i32, ptr %port.addr, align 4
  call void (ptr, ...) @qemu_log(ptr noundef @.str.98, i32 noundef %6)
  br label %if.end

if.end:                                           ; preds = %if.else, %if.then8
  br label %if.end11

if.end11:                                         ; preds = %if.end, %land.lhs.true5, %land.lhs.true, %entry
  ret void
}

; Function Attrs: nounwind sspstrong uwtable
define internal void @ehci_raise_irq(ptr noundef %s, i32 noundef %intr) #0 {
entry:
  %s.addr = alloca ptr, align 8
  %intr.addr = alloca i32, align 4
  store ptr %s, ptr %s.addr, align 8
  store i32 %intr, ptr %intr.addr, align 4
  %0 = load i32, ptr %intr.addr, align 4
  %and = and i32 %0, 28
  %tobool = icmp ne i32 %and, 0
  br i1 %tobool, label %if.then, label %if.else

if.then:                                          ; preds = %entry
  %1 = load i32, ptr %intr.addr, align 4
  %2 = load ptr, ptr %s.addr, align 8
  %3 = getelementptr inbounds %struct.EHCIState, ptr %2, i32 0, i32 16
  %usbsts = getelementptr inbounds %struct.anon, ptr %3, i32 0, i32 1
  %4 = load i32, ptr %usbsts, align 4
  %or = or i32 %4, %1
  store i32 %or, ptr %usbsts, align 4
  %5 = load ptr, ptr %s.addr, align 8
  call void @ehci_update_irq(ptr noundef %5)
  br label %if.end

if.else:                                          ; preds = %entry
  %6 = load i32, ptr %intr.addr, align 4
  %7 = load ptr, ptr %s.addr, align 8
  %usbsts_pending = getelementptr inbounds %struct.EHCIState, ptr %7, i32 0, i32 25
  %8 = load i32, ptr %usbsts_pending, align 16
  %or1 = or i32 %8, %6
  store i32 %or1, ptr %usbsts_pending, align 16
  br label %if.end

if.end:                                           ; preds = %if.else, %if.then
  ret void
}

; Function Attrs: nounwind sspstrong uwtable
define internal void @trace_usb_ehci_port_wakeup(i32 noundef %port) #0 {
entry:
  %port.addr = alloca i32, align 4
  store i32 %port, ptr %port.addr, align 4
  %0 = load i32, ptr %port.addr, align 4
  call void @_nocheck__trace_usb_ehci_port_wakeup(i32 noundef %0)
  ret void
}

; Function Attrs: nounwind sspstrong uwtable
define internal void @ehci_wakeup(ptr noundef %port) #0 {
entry:
  %port.addr = alloca ptr, align 8
  %s = alloca ptr, align 8
  %portsc = alloca ptr, align 8
  %companion = alloca ptr, align 8
  store ptr %port, ptr %port.addr, align 8
  %0 = load ptr, ptr %port.addr, align 8
  %opaque = getelementptr inbounds %struct.USBPort, ptr %0, i32 0, i32 5
  %1 = load ptr, ptr %opaque, align 8
  store ptr %1, ptr %s, align 8
  %2 = load ptr, ptr %s, align 8
  %portsc1 = getelementptr inbounds %struct.EHCIState, ptr %2, i32 0, i32 17
  %3 = load ptr, ptr %port.addr, align 8
  %index = getelementptr inbounds %struct.USBPort, ptr %3, i32 0, i32 6
  %4 = load i32, ptr %index, align 8
  %idxprom = sext i32 %4 to i64
  %arrayidx = getelementptr [6 x i32], ptr %portsc1, i64 0, i64 %idxprom
  store ptr %arrayidx, ptr %portsc, align 8
  %5 = load ptr, ptr %portsc, align 8
  %6 = load i32, ptr %5, align 4
  %and = and i32 %6, 8192
  %tobool = icmp ne i32 %and, 0
  br i1 %tobool, label %if.then, label %if.end9

if.then:                                          ; preds = %entry
  %7 = load ptr, ptr %s, align 8
  %companion_ports = getelementptr inbounds %struct.EHCIState, ptr %7, i32 0, i32 24
  %8 = load ptr, ptr %port.addr, align 8
  %index2 = getelementptr inbounds %struct.USBPort, ptr %8, i32 0, i32 6
  %9 = load i32, ptr %index2, align 8
  %idxprom3 = sext i32 %9 to i64
  %arrayidx4 = getelementptr [6 x ptr], ptr %companion_ports, i64 0, i64 %idxprom3
  %10 = load ptr, ptr %arrayidx4, align 8
  store ptr %10, ptr %companion, align 8
  %11 = load ptr, ptr %companion, align 8
  %ops = getelementptr inbounds %struct.USBPort, ptr %11, i32 0, i32 4
  %12 = load ptr, ptr %ops, align 8
  %wakeup = getelementptr inbounds %struct.USBPortOps, ptr %12, i32 0, i32 3
  %13 = load ptr, ptr %wakeup, align 8
  %tobool5 = icmp ne ptr %13, null
  br i1 %tobool5, label %if.then6, label %if.end

if.then6:                                         ; preds = %if.then
  %14 = load ptr, ptr %companion, align 8
  %ops7 = getelementptr inbounds %struct.USBPort, ptr %14, i32 0, i32 4
  %15 = load ptr, ptr %ops7, align 8
  %wakeup8 = getelementptr inbounds %struct.USBPortOps, ptr %15, i32 0, i32 3
  %16 = load ptr, ptr %wakeup8, align 8
  %17 = load ptr, ptr %companion, align 8
  call void %16(ptr noundef %17)
  br label %if.end

if.end:                                           ; preds = %if.then6, %if.then
  br label %return

if.end9:                                          ; preds = %entry
  %18 = load ptr, ptr %portsc, align 8
  %19 = load i32, ptr %18, align 4
  %and10 = and i32 %19, 128
  %tobool11 = icmp ne i32 %and10, 0
  br i1 %tobool11, label %if.then12, label %if.end14

if.then12:                                        ; preds = %if.end9
  %20 = load ptr, ptr %port.addr, align 8
  %index13 = getelementptr inbounds %struct.USBPort, ptr %20, i32 0, i32 6
  %21 = load i32, ptr %index13, align 8
  call void @trace_usb_ehci_port_wakeup(i32 noundef %21)
  %22 = load ptr, ptr %portsc, align 8
  %23 = load i32, ptr %22, align 4
  %or = or i32 %23, 64
  store i32 %or, ptr %22, align 4
  %24 = load ptr, ptr %s, align 8
  call void @ehci_raise_irq(ptr noundef %24, i32 noundef 4)
  br label %if.end14

if.end14:                                         ; preds = %if.then12, %if.end9
  %25 = load ptr, ptr %s, align 8
  %async_bh = getelementptr inbounds %struct.EHCIState, ptr %25, i32 0, i32 19
  %26 = load ptr, ptr %async_bh, align 8
  call void @qemu_bh_schedule(ptr noundef %26)
  br label %return

return:                                           ; preds = %if.end14, %if.end
  ret void
}