; Function Attrs: nounwind sspstrong uwtable
define internal void @ehci_wakeup(ptr noundef readonly captures(none) %port) #0 {
entry:
  %_now.i.i = alloca %struct.timeval, align 8
  %opaque = getelementptr inbounds nuw i8, ptr %port, i64 40
  %0 = load ptr, ptr %opaque, align 8
  %portsc1 = getelementptr inbounds nuw i8, ptr %0, i64 1416
  %index = getelementptr inbounds nuw i8, ptr %port, i64 48
  %1 = load i32, ptr %index, align 8
  %idxprom = sext i32 %1 to i64
  %arrayidx = getelementptr [6 x i32], ptr %portsc1, i64 0, i64 %idxprom
  %2 = load i32, ptr %arrayidx, align 4
  %and = and i32 %2, 8192
  %tobool.not = icmp eq i32 %and, 0
  br i1 %tobool.not, label %if.end9, label %if.then

if.then:                                          ; preds = %entry
  %companion_ports = getelementptr inbounds nuw i8, ptr %0, i64 1904
  %arrayidx4 = getelementptr [6 x ptr], ptr %companion_ports, i64 0, i64 %idxprom
  %3 = load ptr, ptr %arrayidx4, align 8
  %ops = getelementptr inbounds nuw i8, ptr %3, i64 32
  %4 = load ptr, ptr %ops, align 8
  %wakeup = getelementptr inbounds nuw i8, ptr %4, i64 24
  %5 = load ptr, ptr %wakeup, align 8
  %tobool5.not = icmp eq ptr %5, null
  br i1 %tobool5.not, label %return, label %if.then6

if.then6:                                         ; preds = %if.then
  tail call void %5(ptr noundef nonnull %3) #17
  br label %return

if.end9:                                          ; preds = %entry
  %and10 = and i32 %2, 128
  %tobool11.not = icmp eq i32 %and10, 0
  br i1 %tobool11.not, label %if.end14, label %if.then12

if.then12:                                        ; preds = %if.end9
  call void @llvm.lifetime.start.p0(i64 16, ptr nonnull %_now.i.i)
  %6 = load i32, ptr @trace_events_enabled_count, align 4
  %tobool.i.i = icmp ne i32 %6, 0
  %7 = load i16, ptr @_TRACE_USB_EHCI_PORT_WAKEUP_DSTATE, align 2
  %tobool4.i.i = icmp ne i16 %7, 0
  %or.cond.i.i = select i1 %tobool.i.i, i1 %tobool4.i.i, i1 false
  br i1 %or.cond.i.i, label %land.lhs.true5.i.i, label %trace_usb_ehci_port_wakeup.exit

land.lhs.true5.i.i:                               ; preds = %if.then12
  %8 = load i32, ptr @qemu_loglevel, align 4
  %and.i.i.i = and i32 %8, 32768
  %cmp.i.not.i.i = icmp eq i32 %and.i.i.i, 0
  br i1 %cmp.i.not.i.i, label %trace_usb_ehci_port_wakeup.exit, label %if.then.i.i

if.then.i.i:                                      ; preds = %land.lhs.true5.i.i
  %9 = load i8, ptr @message_with_timestamp, align 1
  %tobool7.i.i = trunc i8 %9 to i1
  br i1 %tobool7.i.i, label %if.then8.i.i, label %if.else.i.i

if.then8.i.i:                                     ; preds = %if.then.i.i
  %call9.i.i = call i32 @gettimeofday(ptr noundef nonnull %_now.i.i, ptr noundef null) #17
  %call10.i.i = tail call i32 @qemu_get_thread_id() #17
  %10 = load i64, ptr %_now.i.i, align 8
  %tv_usec.i.i = getelementptr inbounds nuw i8, ptr %_now.i.i, i64 8
  %11 = load i64, ptr %tv_usec.i.i, align 8
  tail call void (ptr, ...) @qemu_log(ptr noundef nonnull @.str.97, i32 noundef %call10.i.i, i64 noundef %10, i64 noundef %11, i32 noundef %1) #17
  br label %trace_usb_ehci_port_wakeup.exit

if.else.i.i:                                      ; preds = %if.then.i.i
  tail call void (ptr, ...) @qemu_log(ptr noundef nonnull @.str.98, i32 noundef %1) #17
  br label %trace_usb_ehci_port_wakeup.exit

trace_usb_ehci_port_wakeup.exit:                  ; preds = %if.then12, %land.lhs.true5.i.i, %if.then8.i.i, %if.else.i.i
  call void @llvm.lifetime.end.p0(i64 16, ptr nonnull %_now.i.i)
  %12 = load i32, ptr %arrayidx, align 4
  %or = or i32 %12, 64
  store i32 %or, ptr %arrayidx, align 4
  %usbsts.i = getelementptr inbounds nuw i8, ptr %0, i64 1352
  %13 = load i32, ptr %usbsts.i, align 4
  %or.i = or i32 %13, 4
  store i32 %or.i, ptr %usbsts.i, align 4
  tail call fastcc void @ehci_update_irq(ptr noundef nonnull %0)
  br label %if.end14

if.end14:                                         ; preds = %trace_usb_ehci_port_wakeup.exit, %if.end9
  %async_bh = getelementptr inbounds nuw i8, ptr %0, i64 1448
  %14 = load ptr, ptr %async_bh, align 8
  tail call void @qemu_bh_schedule(ptr noundef %14) #17
  br label %return

return:                                           ; preds = %if.then, %if.then6, %if.end14
  ret void
}